; Function Attrs: mustprogress uwtable
define void @_ZN8nanobind12python_errorC2ERKS0_(ptr noundef nonnull align 8 dereferenceable(40) initializes((0, 40)) %0, ptr noundef nonnull readonly align 8 captures(none) dereferenceable(40) %1) unnamed_addr #2 align 2 personality ptr @__gxx_personality_v0 {
  store ptr getelementptr inbounds nuw inrange(-16, 24) (i8, ptr @_ZTVN8nanobind12python_errorE, i64 16), ptr %0, align 8
  %3 = getelementptr inbounds nuw i8, ptr %0, i64 8
  %4 = getelementptr inbounds nuw i8, ptr %1, i64 8
  %5 = load ptr, ptr %4, align 8
  store ptr %5, ptr %3, align 8
  %6 = getelementptr inbounds nuw i8, ptr %0, i64 16
  %7 = getelementptr inbounds nuw i8, ptr %1, i64 16
  %8 = load ptr, ptr %7, align 8
  store ptr %8, ptr %6, align 8
  %9 = getelementptr inbounds nuw i8, ptr %0, i64 24
  %10 = getelementptr inbounds nuw i8, ptr %1, i64 24
  %11 = load ptr, ptr %10, align 8
  store ptr %11, ptr %9, align 8
  %12 = getelementptr inbounds nuw i8, ptr %0, i64 32
  store ptr null, ptr %12, align 8
  %.not = icmp eq ptr %5, null
  br i1 %.not, label %_ZN8nanobind18gil_scoped_acquireD2Ev.exit, label %13

13:                                               ; preds = %2
  %14 = invoke i32 @PyGILState_Ensure()
          to label %_ZN8nanobind18gil_scoped_acquireC2Ev.exit unwind label %15

15:                                               ; preds = %13
  %16 = landingpad { ptr, i32 }
          catch ptr null
  %17 = extractvalue { ptr, i32 } %16, 0
  tail call void @__clang_call_terminate(ptr %17) #27
  unreachable

_ZN8nanobind18gil_scoped_acquireC2Ev.exit:        ; preds = %13
  %18 = load ptr, ptr %3, align 8
  %19 = load i64, ptr %18, align 8
  %20 = add nsw i64 %19, 1
  store i64 %20, ptr %18, align 8
  %21 = load ptr, ptr %6, align 8
  %.not.i = icmp eq ptr %21, null
  br i1 %.not.i, label %_ZL11_Py_XINCREFP7_object.exit, label %22

22:                                               ; preds = %_ZN8nanobind18gil_scoped_acquireC2Ev.exit
  %23 = load i64, ptr %21, align 8
  %24 = add nsw i64 %23, 1
  store i64 %24, ptr %21, align 8
  br label %_ZL11_Py_XINCREFP7_object.exit

_ZL11_Py_XINCREFP7_object.exit:                   ; preds = %_ZN8nanobind18gil_scoped_acquireC2Ev.exit, %22
  %25 = load ptr, ptr %9, align 8
  %.not.i9 = icmp eq ptr %25, null
  br i1 %.not.i9, label %_ZL11_Py_XINCREFP7_object.exit10, label %26

26:                                               ; preds = %_ZL11_Py_XINCREFP7_object.exit
  %27 = load i64, ptr %25, align 8
  %28 = add nsw i64 %27, 1
  store i64 %28, ptr %25, align 8
  br label %_ZL11_Py_XINCREFP7_object.exit10

_ZL11_Py_XINCREFP7_object.exit10:                 ; preds = %_ZL11_Py_XINCREFP7_object.exit, %26
  invoke void @PyGILState_Release(i32 noundef %14)
          to label %_ZN8nanobind18gil_scoped_acquireD2Ev.exit unwind label %29

29:                                               ; preds = %_ZL11_Py_XINCREFP7_object.exit10
  %30 = landingpad { ptr, i32 }
          catch ptr null
  %31 = extractvalue { ptr, i32 } %30, 0
  tail call void @__clang_call_terminate(ptr %31) #27
  unreachable

_ZN8nanobind18gil_scoped_acquireD2Ev.exit:        ; preds = %_ZL11_Py_XINCREFP7_object.exit10, %2
  %32 = getelementptr inbounds nuw i8, ptr %1, i64 32
  %33 = load ptr, ptr %32, align 8
  %.not8 = icmp eq ptr %33, null
  br i1 %.not8, label %39, label %34

34:                                               ; preds = %_ZN8nanobind18gil_scoped_acquireD2Ev.exit
  %35 = invoke noundef ptr @_ZN8nanobind6detail12strdup_checkEPKc(ptr noundef nonnull %33)
          to label %36 unwind label %37

36:                                               ; preds = %34
  store ptr %35, ptr %12, align 8
  br label %39

37:                                               ; preds = %34
  %38 = landingpad { ptr, i32 }
          cleanup
  tail call void @_ZNSt9exceptionD2Ev(ptr noundef nonnull align 8 dereferenceable(8) %0) #26
  resume { ptr, i32 } %38

39:                                               ; preds = %36, %_ZN8nanobind18gil_scoped_acquireD2Ev.exit
  ret void
}